target datalayout = "e-m:e-p270:32:32-p271:32:32-p272:64:64-i64:64-i128:128-f80:128-n8:16:32:64-S128"
target triple = "x86_64-pc-linux-gnu"

; Function Attrs: nounwind uwtable
define double @genrand_res53() #0 {
  %1 = alloca i64, align 8
  %2 = alloca i64, align 8
  %3 = call i64 @genrand_int32()
  %4 = lshr i64 %3, 5
  store i64 %4, ptr %1, align 8
  %5 = call i64 @genrand_int32()
  %6 = lshr i64 %5, 6
  store i64 %6, ptr %2, align 8
  %7 = load i64, ptr %1, align 8
  %8 = uitofp i64 %7 to double
  %9 = load i64, ptr %2, align 8
  %10 = uitofp i64 %9 to double
  %11 = call double @llvm.fmuladd.f64(double %8, double 0x4190000000000000, double %10)
  %12 = fmul double %11, 0x3CA0000000000000
  ret double %12
}