; Function Attrs: nofree norecurse nosync nounwind memory(readwrite, inaccessiblemem: none) uwtable
define double @genrand_res53() local_unnamed_addr #3 {
  %1 = tail call i64 @genrand_int32()
  %2 = lshr i64 %1, 5
  %3 = tail call i64 @genrand_int32()
  %4 = lshr i64 %3, 6
  %5 = uitofp nneg i64 %2 to double
  %6 = uitofp nneg i64 %4 to double
  %7 = tail call double @llvm.fmuladd.f64(double %5, double 0x4190000000000000, double %6)
  %8 = fmul double %7, 0x3CA0000000000000
  ret double %8
}